; ModuleID = 'source-C-CXX/56/281.c'
source_filename = "source-C-CXX/56/281.c"
target datalayout = "e-m:e-p270:32:32-p271:32:32-p272:64:64-i64:64-f80:128-n8:16:32:64-S128"
target triple = "x86_64-pc-linux-gnu"

@.str.2 = private unnamed_addr constant [3 x i8] c"%d\00", align 1
@.str.3 = private unnamed_addr constant [3 x i8] c"%s\00", align 1

; Function Attrs: nofree nounwind sspstrong uwtable
define dso_local void @cancel(i8* nocapture readonly %0) local_unnamed_addr #0 {
  %2 = tail call i64 @strlen(i8* noundef nonnull dereferenceable(1) %0) #5
  %3 = trunc i64 %2 to i32
  %4 = shl i64 %2, 32
  %5 = add i64 %4, -4294967296
  %6 = ashr exact i64 %5, 32
  %7 = getelementptr inbounds i8, i8* %0, i64 %6
  %8 = load i8, i8* %7, align 1, !tbaa !5
  switch i8 %8, label %45 [
    i8 114, label %9
    i8 121, label %27
  ]

9:                                                ; preds = %1
  %10 = add i32 %3, -2
  %11 = sext i32 %10 to i64
  %12 = getelementptr inbounds i8, i8* %0, i64 %11
  %13 = load i8, i8* %12, align 1, !tbaa !5
  %14 = icmp eq i8 %13, 101
  br i1 %14, label %15, label %45

15:                                               ; preds = %9
  %16 = icmp sgt i32 %3, 2
  br i1 %16, label %17, label %58

17:                                               ; preds = %15
  %18 = zext i32 %10 to i64
  br label %19

19:                                               ; preds = %17, %19
  %20 = phi i64 [ 0, %17 ], [ %25, %19 ]
  %21 = getelementptr inbounds i8, i8* %0, i64 %20
  %22 = load i8, i8* %21, align 1, !tbaa !5
  %23 = sext i8 %22 to i32
  %24 = tail call i32 @putchar(i32 %23)
  %25 = add nuw nsw i64 %20, 1
  %26 = icmp eq i64 %25, %18
  br i1 %26, label %58, label %19, !llvm.loop !8

27:                                               ; preds = %1
  %28 = add i32 %3, -2
  %29 = sext i32 %28 to i64
  %30 = getelementptr inbounds i8, i8* %0, i64 %29
  %31 = load i8, i8* %30, align 1, !tbaa !5
  %32 = icmp eq i8 %31, 108
  br i1 %32, label %33, label %45

33:                                               ; preds = %27
  %34 = icmp sgt i32 %3, 2
  br i1 %34, label %35, label %58

35:                                               ; preds = %33
  %36 = zext i32 %28 to i64
  br label %37

37:                                               ; preds = %35, %37
  %38 = phi i64 [ 0, %35 ], [ %43, %37 ]
  %39 = getelementptr inbounds i8, i8* %0, i64 %38
  %40 = load i8, i8* %39, align 1, !tbaa !5
  %41 = sext i8 %40 to i32
  %42 = tail call i32 @putchar(i32 %41)
  %43 = add nuw nsw i64 %38, 1
  %44 = icmp eq i64 %43, %36
  br i1 %44, label %58, label %37, !llvm.loop !10

45:                                               ; preds = %1, %9, %27
  %46 = icmp sgt i32 %3, 3
  br i1 %46, label %47, label %58

47:                                               ; preds = %45
  %48 = add i64 %2, 4294967293
  %49 = and i64 %48, 4294967295
  br label %50

50:                                               ; preds = %47, %50
  %51 = phi i64 [ 0, %47 ], [ %56, %50 ]
  %52 = getelementptr inbounds i8, i8* %0, i64 %51
  %53 = load i8, i8* %52, align 1, !tbaa !5
  %54 = sext i8 %53 to i32
  %55 = tail call i32 @putchar(i32 %54)
  %56 = add nuw nsw i64 %51, 1
  %57 = icmp eq i64 %56, %49
  br i1 %57, label %58, label %50, !llvm.loop !11

58:                                               ; preds = %37, %19, %50, %33, %15, %45
  %59 = tail call i32 @putchar(i32 10)
  ret void
}

; Function Attrs: argmemonly mustprogress nofree nosync nounwind willreturn
declare void @llvm.lifetime.start.p0i8(i64 immarg, i8* nocapture) #1

; Function Attrs: argmemonly mustprogress nofree nounwind readonly willreturn
declare i64 @strlen(i8* nocapture) local_unnamed_addr #2

; Function Attrs: argmemonly mustprogress nofree nosync nounwind willreturn
declare void @llvm.lifetime.end.p0i8(i64 immarg, i8* nocapture) #1

; Function Attrs: nofree nounwind sspstrong uwtable
define dso_local void @main() local_unnamed_addr #0 {
  %1 = alloca i32, align 4
  %2 = alloca [20 x i8], align 16
  %3 = bitcast i32* %1 to i8*
  call void @llvm.lifetime.start.p0i8(i64 4, i8* nonnull %3) #6
  %4 = getelementptr inbounds [20 x i8], [20 x i8]* %2, i64 0, i64 0
  call void @llvm.lifetime.start.p0i8(i64 20, i8* nonnull %4) #6
  %5 = call i32 (i8*, ...) @__isoc99_scanf(i8* getelementptr inbounds ([3 x i8], [3 x i8]* @.str.2, i64 0, i64 0), i32* nonnull %1)
  %6 = load i32, i32* %1, align 4, !tbaa !12
  %7 = icmp sgt i32 %6, 0
  br i1 %7, label %8, label %14

8:                                                ; preds = %0, %8
  %9 = phi i32 [ %11, %8 ], [ 0, %0 ]
  %10 = call i32 (i8*, ...) @__isoc99_scanf(i8* getelementptr inbounds ([3 x i8], [3 x i8]* @.str.3, i64 0, i64 0), i8* nonnull %4)
  call void @cancel(i8* nonnull %4)
  %11 = add nuw nsw i32 %9, 1
  %12 = load i32, i32* %1, align 4, !tbaa !12
  %13 = icmp slt i32 %11, %12
  br i1 %13, label %8, label %14, !llvm.loop !14

14:                                               ; preds = %8, %0
  call void @llvm.lifetime.end.p0i8(i64 20, i8* nonnull %4) #6
  call void @llvm.lifetime.end.p0i8(i64 4, i8* nonnull %3) #6
  ret void
}

; Function Attrs: nofree nounwind
declare noundef i32 @__isoc99_scanf(i8* nocapture noundef readonly, ...) local_unnamed_addr #3

; Function Attrs: nofree nounwind
declare noundef i32 @putchar(i32 noundef) local_unnamed_addr #4


!llvm.module.flags = !{!0, !1, !2, !3}
!llvm.ident = !{!4}

!0 = !{i32 1, !"wchar_size", i32 4}
!1 = !{i32 7, !"PIC Level", i32 2}
!2 = !{i32 7, !"PIE Level", i32 2}
!3 = !{i32 7, !"uwtable", i32 1}
!4 = !{!"clang version 13.0.0"}
!5 = !{!6, !6, i64 0}
!6 = !{!"omnipotent char", !7, i64 0}
!7 = !{!"Simple C/C++ TBAA"}
!8 = distinct !{!8, !9}
!9 = !{!"llvm.loop.mustprogress"}
!10 = distinct !{!10, !9}
!11 = distinct !{!11, !9}
!12 = !{!13, !13, i64 0}
!13 = !{!"int", !6, i64 0}
!14 = distinct !{!14, !9}
